; Function Attrs: nofree norecurse nosync nounwind memory(read, inaccessiblemem: none) uwtable
define i32 @Ga2_GlaAbsCount(ptr noundef readonly captures(none) %0, i32 noundef %1, i32 noundef %2) local_unnamed_addr #3 {
  %.not = icmp eq i32 %1, 0
  br i1 %.not, label %29, label %.preheader35

.preheader35:                                     ; preds = %3
  %4 = getelementptr inbounds nuw i8, ptr %0, i64 40
  %5 = load ptr, ptr %4, align 8
  %6 = getelementptr i8, ptr %5, i64 4
  %.val28 = load i32, ptr %6, align 4
  %7 = icmp sgt i32 %.val28, 0
  br i1 %7, label %.lr.ph, label %.critedge

.lr.ph:                                           ; preds = %.preheader35
  %8 = load ptr, ptr %0, align 8
  %9 = getelementptr i8, ptr %8, i64 32
  %.val32 = load ptr, ptr %9, align 8
  %.not27 = icmp eq ptr %.val32, null
  %10 = getelementptr i8, ptr %8, i64 16
  %11 = getelementptr i8, ptr %8, i64 64
  br i1 %.not27, label %.critedge, label %.lr.ph.split

.lr.ph.split:                                     ; preds = %.lr.ph
  %12 = getelementptr i8, ptr %5, i64 8
  %.val30 = load ptr, ptr %12, align 8
  %wide.trip.count = zext nneg i32 %.val28 to i64
  br label %13

13:                                               ; preds = %.lr.ph.split, %Gia_ObjIsRo.exit
  %indvars.iv = phi i64 [ 0, %.lr.ph.split ], [ %indvars.iv.next, %Gia_ObjIsRo.exit ]
  %.038 = phi i32 [ 0, %.lr.ph.split ], [ %28, %Gia_ObjIsRo.exit ]
  %14 = getelementptr inbounds nuw i32, ptr %.val30, i64 %indvars.iv
  %15 = load i32, ptr %14, align 4
  %16 = sext i32 %15 to i64
  %17 = getelementptr inbounds %struct.Gia_Obj_t_, ptr %.val32, i64 %16
  %.val34 = load i64, ptr %17, align 4
  %18 = and i64 %.val34, 2684354559
  %narrow.i.not.i = icmp eq i64 %18, 2684354559
  br i1 %narrow.i.not.i, label %19, label %Gia_ObjIsRo.exit

19:                                               ; preds = %13
  %20 = lshr i64 %.val34, 32
  %21 = trunc nuw i64 %20 to i32
  %22 = and i32 %21, 536870911
  %.val.i = load i32, ptr %10, align 8
  %.val3.i = load ptr, ptr %11, align 8
  %23 = getelementptr i8, ptr %.val3.i, i64 4
  %.val3.val.i = load i32, ptr %23, align 4
  %24 = sub nsw i32 %.val3.val.i, %.val.i
  %25 = icmp sge i32 %22, %24
  %26 = zext i1 %25 to i32
  br label %Gia_ObjIsRo.exit

Gia_ObjIsRo.exit:                                 ; preds = %13, %19
  %27 = phi i32 [ 0, %13 ], [ %26, %19 ]
  %28 = add nuw nsw i32 %27, %.038
  %indvars.iv.next = add nuw nsw i64 %indvars.iv, 1
  %exitcond.not = icmp eq i64 %indvars.iv.next, %wide.trip.count
  br i1 %exitcond.not, label %.critedge, label %13, !llvm.loop !68

29:                                               ; preds = %3
  %.not25 = icmp eq i32 %2, 0
  br i1 %.not25, label %.critedge, label %.preheader

.preheader:                                       ; preds = %29
  %30 = getelementptr inbounds nuw i8, ptr %0, i64 40
  %31 = load ptr, ptr %30, align 8
  %32 = getelementptr i8, ptr %31, i64 4
  %.val = load i32, ptr %32, align 4
  %33 = icmp sgt i32 %.val, 0
  br i1 %33, label %.lr.ph43, label %.critedge

.lr.ph43:                                         ; preds = %.preheader
  %34 = load ptr, ptr %0, align 8
  %35 = getelementptr i8, ptr %34, i64 32
  %.val31 = load ptr, ptr %35, align 8
  %.not26 = icmp eq ptr %.val31, null
  br i1 %.not26, label %.critedge, label %.lr.ph43.split

.lr.ph43.split:                                   ; preds = %.lr.ph43
  %36 = getelementptr i8, ptr %31, i64 8
  %.val29 = load ptr, ptr %36, align 8
  %wide.trip.count53 = zext nneg i32 %.val to i64
  br label %37

37:                                               ; preds = %.lr.ph43.split, %37
  %indvars.iv50 = phi i64 [ 0, %.lr.ph43.split ], [ %indvars.iv.next51, %37 ]
  %.242 = phi i32 [ 0, %.lr.ph43.split ], [ %46, %37 ]
  %38 = getelementptr inbounds nuw i32, ptr %.val29, i64 %indvars.iv50
  %39 = load i32, ptr %38, align 4
  %40 = sext i32 %39 to i64
  %41 = getelementptr inbounds %struct.Gia_Obj_t_, ptr %.val31, i64 %40
  %.val33 = load i64, ptr %41, align 4
  %42 = and i64 %.val33, 2147483648
  %.not.i = icmp eq i64 %42, 0
  %43 = and i64 %.val33, 536870911
  %44 = icmp ne i64 %43, 536870911
  %narrow.i = and i1 %.not.i, %44
  %45 = zext i1 %narrow.i to i32
  %46 = add nuw nsw i32 %.242, %45
  %indvars.iv.next51 = add nuw nsw i64 %indvars.iv50, 1
  %exitcond54.not = icmp eq i64 %indvars.iv.next51, %wide.trip.count53
  br i1 %exitcond54.not, label %.critedge, label %37, !llvm.loop !69

.critedge:                                        ; preds = %Gia_ObjIsRo.exit, %37, %.preheader35, %.lr.ph, %.preheader, %.lr.ph43, %29
  %.1 = phi i32 [ 0, %29 ], [ 0, %.preheader ], [ 0, %.lr.ph43 ], [ 0, %.preheader35 ], [ 0, %.lr.ph ], [ %46, %37 ], [ %28, %Gia_ObjIsRo.exit ]
  ret i32 %.1
}